(dp1
S'OriginalConfig'
p2
ccopy_reg
_reconstructor
p3
(cWMCore.Configuration
Configuration
p4
c__builtin__
object
p5
NtRp6
(dp7
S'Site'
p8
g3
(cWMCore.Configuration
ConfigSection
p9
g5
NtRp10
(dp11
S'_internal_documentation'
p12
S''
sS'_internal_settings'
p13
c__builtin__
set
p14
((lp15
S'blacklist'
p16
aS'whitelist'
p17
aS'storageSite'
p18
atRp19
sS'_internal_name'
p20
g8
sS'_internal_docstrings'
p21
(dp22
sg16
(lp23
S'T2_US_Purdue'
p24
aS'T1_UK_RAL'
p25
asS'_internal_children'
p26
g14
((ltRp27
sg18
S'T2_BE_IIHE'
p28
sS'_internal_parent_ref'
p29
Nsg17
(lp30
g28
asbsS'_internal_sections'
p31
(lp32
S'General'
p33
aS'JobType'
p34
aS'Data'
p35
ag8
aS'User'
p36
asg33
g3
(g9
g5
NtRp37
(dp38
g12
S''
sg13
g14
((lp39
S'workArea'
p40
aS'requestName'
p41
atRp42
sg20
g33
sg21
(dp43
sg26
g14
((ltRp44
sg41
S'20150128_PHYS14_DYToEE_20BX25'
p45
sg29
Nsg40
S'crab_projects'
p46
sbsS'_internal_webapps'
p47
(lp48
sg36
g3
(g9
g5
NtRp49
(dp50
g12
S''
sg13
g14
((lp51
S'voGroup'
p52
atRp53
sg20
g36
sg52
S'becms'
p54
sg21
(dp55
sg26
g14
((ltRp56
sg29
NsbsS'_internal_components'
p57
(lp58
sg35
g3
(g9
g5
NtRp59
(dp60
S'inputDataset'
p61
S'/DYToEE_Tune4C_13TeV-pythia8/Phys14DR-AVE20BX25_tsg_PHYS14_25_V3-v1/AODSIM'
p62
sS'splitting'
p63
S'FileBased'
p64
sS'unitsPerJob'
p65
I10
sg12
S''
sg13
g14
((lp66
g61
ag65
aS'ignoreLocality'
p67
aS'inputDBS'
p68
ag63
atRp69
sg67
I01
sg20
g35
sg68
S'https://cmsweb.cern.ch/dbs/prod/global/DBSReader/'
p70
sg21
(dp71
sg26
g14
((ltRp72
sg29
Nsbsg34
g3
(g9
g5
NtRp73
(dp74
S'outputFiles'
p75
(lp76
S'outfile.root'
p77
asg12
S''
sg13
g14
((lp78
S'psetName'
p79
aS'pluginName'
p80
ag75
atRp81
sg20
g34
sg21
(dp82
sg80
S'Analysis'
p83
sg26
g14
((ltRp84
sg79
S'IIHE.py'
p85
sg29
Nsbsbsg52
g54
sS'Server'
p86
S'cmsweb.cern.ch'
p87
sS'instance'
p88
S'prod'
p89
sS'RequestName'
p90
S'150205_170949_crab3test-2:gfasanel_crab_20150128_PHYS14_DYToEE_20BX25'
p91
sS'voRole'
p92
S''
sS'Port'
p93
S''
s.